target datalayout = "e-m:e-p270:32:32-p271:32:32-p272:64:64-i64:64-i128:128-f80:128-n8:16:32:64-S128"
target triple = "x86_64-pc-linux-gnu"

%"class.absl::lts_20240722::log_internal::Voidify" = type { i8 }
%"class.absl::lts_20240722::log_internal::LogMessage" = type { %"class.absl::lts_20240722::base_internal::ErrnoSaver", %"class.std::unique_ptr" }
%"class.absl::lts_20240722::base_internal::ErrnoSaver" = type { i32 }
%"class.std::unique_ptr" = type { %"struct.std::__uniq_ptr_data" }
%"struct.std::__uniq_ptr_data" = type { %"class.std::__uniq_ptr_impl" }
%"class.std::__uniq_ptr_impl" = type { %"class.std::tuple" }
%"class.std::tuple" = type { %"struct.std::_Tuple_impl" }
%"struct.std::_Tuple_impl" = type { %"struct.std::_Head_base.1" }
%"struct.std::_Head_base.1" = type { ptr }
%"class.tsi::SslSessionLRUCache" = type { %"class.grpc_core::RefCounted", %"class.absl::lts_20240722::Mutex", i64, ptr, ptr, i64, %"class.std::map" }
%"class.grpc_core::RefCounted" = type { %"class.grpc_core::PolymorphicRefCount", %"class.grpc_core::RefCount" }
%"class.grpc_core::PolymorphicRefCount" = type { ptr }
%"class.grpc_core::RefCount" = type { %"struct.std::atomic" }
%"struct.std::atomic" = type { %"struct.std::__atomic_base" }
%"struct.std::__atomic_base" = type { i64 }
%"class.absl::lts_20240722::Mutex" = type { %"struct.std::atomic" }
%"class.std::map" = type { %"class.std::_Rb_tree" }
%"class.std::_Rb_tree" = type { %"struct.std::_Rb_tree<std::__cxx11::basic_string<char>, std::pair<const std::__cxx11::basic_string<char>, tsi::SslSessionLRUCache::Node *>, std::_Select1st<std::pair<const std::__cxx11::basic_string<char>, tsi::SslSessionLRUCache::Node *>>, std::less<std::__cxx11::basic_string<char>>>::_Rb_tree_impl" }
%"struct.std::_Rb_tree<std::__cxx11::basic_string<char>, std::pair<const std::__cxx11::basic_string<char>, tsi::SslSessionLRUCache::Node *>, std::_Select1st<std::pair<const std::__cxx11::basic_string<char>, tsi::SslSessionLRUCache::Node *>>, std::less<std::__cxx11::basic_string<char>>>::_Rb_tree_impl" = type { [8 x i8], %"struct.std::_Rb_tree_header" }
%"struct.std::_Rb_tree_header" = type { %"struct.std::_Rb_tree_node_base", i64 }
%"struct.std::_Rb_tree_node_base" = type { i32, ptr, ptr, ptr }
%"class.std::basic_string_view" = type { i64, ptr }
%"class.tsi::SslSessionLRUCache::Node" = type { %"class.std::__cxx11::basic_string", %"class.std::unique_ptr.5", ptr, ptr }
%"class.std::__cxx11::basic_string" = type { %"struct.std::__cxx11::basic_string<char>::_Alloc_hider", i64, %union.anon }
%"struct.std::__cxx11::basic_string<char>::_Alloc_hider" = type { ptr }
%union.anon = type { i64, [8 x i8] }
%"class.std::unique_ptr.5" = type { %"struct.std::__uniq_ptr_data.6" }
%"struct.std::__uniq_ptr_data.6" = type { %"class.std::__uniq_ptr_impl.7" }
%"class.std::__uniq_ptr_impl.7" = type { %"class.std::tuple.8" }
%"class.std::tuple.8" = type { %"struct.std::_Tuple_impl.9" }
%"struct.std::_Tuple_impl.9" = type { %"struct.std::_Head_base.12" }
%"struct.std::_Head_base.12" = type { ptr }
%"class.absl::lts_20240722::log_internal::LogMessageFatal" = type { %"class.absl::lts_20240722::log_internal::LogMessage" }

@.str = private unnamed_addr constant [139 x i8] c"generated/home/dtcxzyw/WorkSpace/Projects/compilers/llvm-opt-benchmark/bench/grpc/grpc/src/core/tsi/ssl/session_cache/ssl_session_cache.cc\00", align 1
@.str.4 = private unnamed_addr constant [27 x i8] c"use_order_list_size_ >= 1u\00", align 1

; Function Attrs: mustprogress nounwind uwtable
define available_externally noundef ptr @_ZNKSt7__cxx1112basic_stringIcSt11char_traitsIcESaIcEE7_M_dataEv(ptr noundef nonnull align 8 dereferenceable(32) %0) #2 align 2 {
  %2 = alloca ptr, align 8
  store ptr %0, ptr %2, align 8, !tbaa !63
  %3 = load ptr, ptr %2, align 8
  %4 = getelementptr inbounds nuw %"class.std::__cxx11::basic_string", ptr %3, i32 0, i32 0
  %5 = getelementptr inbounds nuw %"struct.std::__cxx11::basic_string<char>::_Alloc_hider", ptr %4, i32 0, i32 0
  %6 = load ptr, ptr %5, align 8, !tbaa !173
  ret ptr %6
}

; Function Attrs: mustprogress nounwind uwtable
define linkonce_odr void @_ZNSt17basic_string_viewIcSt11char_traitsIcEEC2EPKcm(ptr noundef nonnull align 8 dereferenceable(16) %0, ptr noundef %1, i64 noundef %2) unnamed_addr #2 comdat align 2 {
  %4 = alloca ptr, align 8
  %5 = alloca ptr, align 8
  %6 = alloca i64, align 8
  store ptr %0, ptr %4, align 8, !tbaa !93
  store ptr %1, ptr %5, align 8, !tbaa !35
  store i64 %2, ptr %6, align 8, !tbaa !8
  %7 = load ptr, ptr %4, align 8
  %8 = getelementptr inbounds nuw %"class.std::basic_string_view", ptr %7, i32 0, i32 0
  %9 = load i64, ptr %6, align 8, !tbaa !8
  store i64 %9, ptr %8, align 8, !tbaa !95
  %10 = getelementptr inbounds nuw %"class.std::basic_string_view", ptr %7, i32 0, i32 1
  %11 = load ptr, ptr %5, align 8, !tbaa !35
  store ptr %11, ptr %10, align 8, !tbaa !97
  ret void
}

; Function Attrs: mustprogress nounwind uwtable
define available_externally noundef i64 @_ZNKSt7__cxx1112basic_stringIcSt11char_traitsIcESaIcEE4sizeEv(ptr noundef nonnull align 8 dereferenceable(32) %0) #2 align 2 {
  %2 = alloca ptr, align 8
  store ptr %0, ptr %2, align 8, !tbaa !63
  %3 = load ptr, ptr %2, align 8
  %4 = getelementptr inbounds nuw %"class.std::__cxx11::basic_string", ptr %3, i32 0, i32 1
  %5 = load i64, ptr %4, align 8, !tbaa !174
  ret i64 %5
}

; Function Attrs: mustprogress nounwind uwtable
define available_externally noundef ptr @_ZNKSt7__cxx1112basic_stringIcSt11char_traitsIcESaIcEE4dataEv(ptr noundef nonnull align 8 dereferenceable(32) %0) #2 align 2 {
  %2 = alloca ptr, align 8
  store ptr %0, ptr %2, align 8, !tbaa !63
  %3 = load ptr, ptr %2, align 8
  %4 = call noundef ptr @_ZNKSt7__cxx1112basic_stringIcSt11char_traitsIcESaIcEE7_M_dataEv(ptr noundef nonnull align 8 dereferenceable(32) %3)
  ret ptr %4
}

; Function Attrs: mustprogress nounwind uwtable
define linkonce_odr void @_ZNKO4absl12lts_2024072212log_internal7VoidifyaaINS1_10LogMessageEEEvRKT_(ptr noundef nonnull align 1 dereferenceable(1) %0, ptr noundef nonnull align 8 dereferenceable(16) %1) #2 comdat align 2 {
  %3 = alloca ptr, align 8
  %4 = alloca ptr, align 8
  store ptr %0, ptr %3, align 8, !tbaa !41
  store ptr %1, ptr %4, align 8, !tbaa !43
  ret void
}

; Function Attrs: mustprogress nounwind uwtable
define linkonce_odr noundef nonnull align 8 dereferenceable(16) ptr @_ZN4absl12lts_2024072212log_internal10LogMessage14InternalStreamEv(ptr noundef nonnull align 8 dereferenceable(16) %0) #2 comdat align 2 {
  %2 = alloca ptr, align 8
  store ptr %0, ptr %2, align 8, !tbaa !43
  %3 = load ptr, ptr %2, align 8
  ret ptr %3
}

; Function Attrs: mustprogress nounwind uwtable
define available_externally { i64, ptr } @_ZNKSt7__cxx1112basic_stringIcSt11char_traitsIcESaIcEEcvSt17basic_string_viewIcS2_EEv(ptr noundef nonnull align 8 dereferenceable(32) %0) #2 align 2 {
  %2 = alloca %"class.std::basic_string_view", align 8
  %3 = alloca ptr, align 8
  store ptr %0, ptr %3, align 8, !tbaa !63
  %4 = load ptr, ptr %3, align 8
  %5 = call noundef ptr @_ZNKSt7__cxx1112basic_stringIcSt11char_traitsIcESaIcEE4dataEv(ptr noundef nonnull align 8 dereferenceable(32) %4) #20
  %6 = call noundef i64 @_ZNKSt7__cxx1112basic_stringIcSt11char_traitsIcESaIcEE4sizeEv(ptr noundef nonnull align 8 dereferenceable(32) %4) #20
  call void @_ZNSt17basic_string_viewIcSt11char_traitsIcEEC2EPKcm(ptr noundef nonnull align 8 dereferenceable(16) %2, ptr noundef %5, i64 noundef %6) #20
  %7 = load { i64, ptr }, ptr %2, align 8
  ret { i64, ptr } %7
}

; Function Attrs: inlinehint mustprogress uwtable
define linkonce_odr noundef ptr @_ZN4absl12lts_2024072212log_internal12Check_GEImplImjEEPNSt7__cxx1112basic_stringIcSt11char_traitsIcESaIcEEERKT_RKT0_PKc(ptr noundef nonnull align 8 dereferenceable(8) %0, ptr noundef nonnull align 4 dereferenceable(4) %1, ptr noundef %2) #11 comdat {
  %4 = alloca ptr, align 8
  %5 = alloca ptr, align 8
  %6 = alloca ptr, align 8
  store ptr %0, ptr %4, align 8, !tbaa !98
  store ptr %1, ptr %5, align 8, !tbaa !100
  store ptr %2, ptr %6, align 8, !tbaa !35
  %7 = load ptr, ptr %4, align 8, !tbaa !98
  %8 = load i64, ptr %7, align 8, !tbaa !8
  %9 = load ptr, ptr %5, align 8, !tbaa !100
  %10 = load i32, ptr %9, align 4, !tbaa !72
  %11 = zext i32 %10 to i64
  %12 = icmp uge i64 %8, %11
  %13 = zext i1 %12 to i64
  %14 = call i64 @llvm.expect.i64(i64 %13, i64 1)
  %15 = icmp ne i64 %14, 0
  br i1 %15, label %16, label %17

16:                                               ; preds = %3
  br label %25

17:                                               ; preds = %3
  %18 = load ptr, ptr %4, align 8, !tbaa !98
  %19 = load i64, ptr %18, align 8, !tbaa !8
  %20 = load ptr, ptr %5, align 8, !tbaa !100
  %21 = load i32, ptr %20, align 4, !tbaa !72
  %22 = zext i32 %21 to i64
  %23 = load ptr, ptr %6, align 8, !tbaa !35
  %24 = call noundef nonnull ptr @_ZN4absl12lts_2024072212log_internal17MakeCheckOpStringImlEEPNSt7__cxx1112basic_stringIcSt11char_traitsIcESaIcEEET_T0_PKc(i64 noundef %19, i64 noundef %22, ptr noundef %23)
  br label %25

25:                                               ; preds = %17, %16
  %26 = phi ptr [ null, %16 ], [ %24, %17 ]
  ret ptr %26
}

; Function Attrs: inlinehint mustprogress nounwind uwtable
define linkonce_odr noundef i32 @_ZN4absl12lts_2024072212log_internal21GetReferenceableValueEj(i32 noundef %0) #1 comdat {
  %2 = alloca i32, align 4
  store i32 %0, ptr %2, align 4, !tbaa !72
  %3 = load i32, ptr %2, align 4, !tbaa !72
  ret i32 %3
}

; Function Attrs: inlinehint mustprogress nounwind uwtable
define linkonce_odr noundef i64 @_ZN4absl12lts_2024072212log_internal21GetReferenceableValueEm(i64 noundef %0) #1 comdat {
  %2 = alloca i64, align 8
  store i64 %0, ptr %2, align 8, !tbaa !8
  %3 = load i64, ptr %2, align 8, !tbaa !8
  ret i64 %3
}

; Function Attrs: mustprogress uwtable
define void @_ZN3tsi18SslSessionLRUCache6RemoveEPNS0_4NodeE(ptr noundef nonnull align 8 dereferenceable(104) %0, ptr noundef %1) #0 align 2 personality ptr @__gxx_personality_v0 {
  %3 = alloca ptr, align 8
  %4 = alloca ptr, align 8
  %5 = alloca ptr, align 8
  %6 = alloca i64, align 8
  %7 = alloca i32, align 4
  %8 = alloca %"class.absl::lts_20240722::log_internal::Voidify", align 1
  %9 = alloca %"class.absl::lts_20240722::log_internal::LogMessageFatal", align 8
  %10 = alloca %"class.std::basic_string_view", align 8
  %11 = alloca ptr, align 8
  %12 = alloca i32, align 4
  store ptr %0, ptr %3, align 8, !tbaa !3
  store ptr %1, ptr %4, align 8, !tbaa !45
  %13 = load ptr, ptr %3, align 8
  %14 = load ptr, ptr %4, align 8, !tbaa !45
  %15 = getelementptr inbounds nuw %"class.tsi::SslSessionLRUCache::Node", ptr %14, i32 0, i32 3
  %16 = load ptr, ptr %15, align 8, !tbaa !71
  %17 = icmp eq ptr %16, null
  br i1 %17, label %18, label %23

18:                                               ; preds = %2
  %19 = load ptr, ptr %4, align 8, !tbaa !45
  %20 = getelementptr inbounds nuw %"class.tsi::SslSessionLRUCache::Node", ptr %19, i32 0, i32 2
  %21 = load ptr, ptr %20, align 8, !tbaa !46
  %22 = getelementptr inbounds nuw %"class.tsi::SslSessionLRUCache", ptr %13, i32 0, i32 3
  store ptr %21, ptr %22, align 8, !tbaa !30
  br label %31

23:                                               ; preds = %2
  %24 = load ptr, ptr %4, align 8, !tbaa !45
  %25 = getelementptr inbounds nuw %"class.tsi::SslSessionLRUCache::Node", ptr %24, i32 0, i32 2
  %26 = load ptr, ptr %25, align 8, !tbaa !46
  %27 = load ptr, ptr %4, align 8, !tbaa !45
  %28 = getelementptr inbounds nuw %"class.tsi::SslSessionLRUCache::Node", ptr %27, i32 0, i32 3
  %29 = load ptr, ptr %28, align 8, !tbaa !71
  %30 = getelementptr inbounds nuw %"class.tsi::SslSessionLRUCache::Node", ptr %29, i32 0, i32 2
  store ptr %26, ptr %30, align 8, !tbaa !46
  br label %31

31:                                               ; preds = %23, %18
  %32 = load ptr, ptr %4, align 8, !tbaa !45
  %33 = getelementptr inbounds nuw %"class.tsi::SslSessionLRUCache::Node", ptr %32, i32 0, i32 2
  %34 = load ptr, ptr %33, align 8, !tbaa !46
  %35 = icmp eq ptr %34, null
  br i1 %35, label %36, label %41

36:                                               ; preds = %31
  %37 = load ptr, ptr %4, align 8, !tbaa !45
  %38 = getelementptr inbounds nuw %"class.tsi::SslSessionLRUCache::Node", ptr %37, i32 0, i32 3
  %39 = load ptr, ptr %38, align 8, !tbaa !71
  %40 = getelementptr inbounds nuw %"class.tsi::SslSessionLRUCache", ptr %13, i32 0, i32 4
  store ptr %39, ptr %40, align 8, !tbaa !31
  br label %49

41:                                               ; preds = %31
  %42 = load ptr, ptr %4, align 8, !tbaa !45
  %43 = getelementptr inbounds nuw %"class.tsi::SslSessionLRUCache::Node", ptr %42, i32 0, i32 3
  %44 = load ptr, ptr %43, align 8, !tbaa !71
  %45 = load ptr, ptr %4, align 8, !tbaa !45
  %46 = getelementptr inbounds nuw %"class.tsi::SslSessionLRUCache::Node", ptr %45, i32 0, i32 2
  %47 = load ptr, ptr %46, align 8, !tbaa !46
  %48 = getelementptr inbounds nuw %"class.tsi::SslSessionLRUCache::Node", ptr %47, i32 0, i32 3
  store ptr %44, ptr %48, align 8, !tbaa !71
  br label %49

49:                                               ; preds = %41, %36
  br label %50

50:                                               ; preds = %49
  call void @llvm.lifetime.start.p0(i64 8, ptr %5) #20
  call void @llvm.lifetime.start.p0(i64 8, ptr %6) #20
  %51 = getelementptr inbounds nuw %"class.tsi::SslSessionLRUCache", ptr %13, i32 0, i32 5
  %52 = load i64, ptr %51, align 8, !tbaa !32
  %53 = call noundef i64 @_ZN4absl12lts_2024072212log_internal21GetReferenceableValueEm(i64 noundef %52)
  store i64 %53, ptr %6, align 8, !tbaa !8
  call void @llvm.lifetime.start.p0(i64 4, ptr %7) #20
  %54 = call noundef i32 @_ZN4absl12lts_2024072212log_internal21GetReferenceableValueEj(i32 noundef 1)
  store i32 %54, ptr %7, align 4, !tbaa !72
  %55 = call noundef ptr @_ZN4absl12lts_2024072212log_internal12Check_GEImplImjEEPNSt7__cxx1112basic_stringIcSt11char_traitsIcESaIcEEERKT_RKT0_PKc(ptr noundef nonnull align 8 dereferenceable(8) %6, ptr noundef nonnull align 4 dereferenceable(4) %7, ptr noundef @.str.4)
  call void @llvm.lifetime.end.p0(i64 4, ptr %7) #20
  call void @llvm.lifetime.end.p0(i64 8, ptr %6) #20
  store ptr %55, ptr %5, align 8, !tbaa !63
  %56 = load ptr, ptr %5, align 8, !tbaa !63
  %57 = icmp ne ptr %56, null
  br i1 %57, label %59, label %58

58:                                               ; preds = %50
  call void @llvm.lifetime.end.p0(i64 8, ptr %5) #20
  br label %78

59:                                               ; preds = %50
  call void @llvm.lifetime.start.p0(i64 1, ptr %8) #20
  call void @llvm.lifetime.start.p0(i64 16, ptr %9) #20
  %60 = load ptr, ptr %5, align 8, !tbaa !63
  %61 = call { i64, ptr } @_ZNKSt7__cxx1112basic_stringIcSt11char_traitsIcESaIcEEcvSt17basic_string_viewIcS2_EEv(ptr noundef nonnull align 8 dereferenceable(32) %60) #20
  %62 = getelementptr inbounds nuw { i64, ptr }, ptr %10, i32 0, i32 0
  %63 = extractvalue { i64, ptr } %61, 0
  store i64 %63, ptr %62, align 8
  %64 = getelementptr inbounds nuw { i64, ptr }, ptr %10, i32 0, i32 1
  %65 = extractvalue { i64, ptr } %61, 1
  store ptr %65, ptr %64, align 8
  %66 = getelementptr inbounds nuw { i64, ptr }, ptr %10, i32 0, i32 0
  %67 = load i64, ptr %66, align 8
  %68 = getelementptr inbounds nuw { i64, ptr }, ptr %10, i32 0, i32 1
  %69 = load ptr, ptr %68, align 8
  call void @_ZN4absl12lts_2024072212log_internal15LogMessageFatalC1EPKciSt17basic_string_viewIcSt11char_traitsIcEE(ptr noundef nonnull align 8 dereferenceable(16) %9, ptr noundef @.str, i32 noundef 146, i64 %67, ptr %69) #21
  %70 = invoke noundef nonnull align 8 dereferenceable(16) ptr @_ZN4absl12lts_2024072212log_internal10LogMessage14InternalStreamEv(ptr noundef nonnull align 8 dereferenceable(16) %9)
          to label %71 unwind label %73

71:                                               ; preds = %59
  invoke void @_ZNKO4absl12lts_2024072212log_internal7VoidifyaaINS1_10LogMessageEEEvRKT_(ptr noundef nonnull align 1 dereferenceable(1) %8, ptr noundef nonnull align 8 dereferenceable(16) %70)
          to label %72 unwind label %73

72:                                               ; preds = %71
  call void @_ZN4absl12lts_2024072212log_internal15LogMessageFatalD1Ev(ptr noundef nonnull align 8 dereferenceable(16) %9) #23
  unreachable

73:                                               ; preds = %71, %59
  %74 = landingpad { ptr, i32 }
          cleanup
  %75 = extractvalue { ptr, i32 } %74, 0
  store ptr %75, ptr %11, align 8
  %76 = extractvalue { ptr, i32 } %74, 1
  store i32 %76, ptr %12, align 4
  call void @_ZN4absl12lts_2024072212log_internal15LogMessageFatalD1Ev(ptr noundef nonnull align 8 dereferenceable(16) %9) #23
  unreachable

77:                                               ; No predecessors!
  call void @llvm.lifetime.end.p0(i64 16, ptr %9) #20
  call void @llvm.lifetime.end.p0(i64 1, ptr %8) #20
  call void @llvm.lifetime.end.p0(i64 8, ptr %5) #20
  br label %82

78:                                               ; preds = %58
  %79 = getelementptr inbounds nuw %"class.tsi::SslSessionLRUCache", ptr %13, i32 0, i32 5
  %80 = load i64, ptr %79, align 8, !tbaa !32
  %81 = add i64 %80, -1
  store i64 %81, ptr %79, align 8, !tbaa !32
  ret void

82:                                               ; preds = %77
  %83 = load ptr, ptr %11, align 8
  %84 = load i32, ptr %12, align 4
  %85 = insertvalue { ptr, i32 } poison, ptr %83, 0
  %86 = insertvalue { ptr, i32 } %85, i32 %84, 1
  resume { ptr, i32 } %86
}