; Function Attrs: mustprogress uwtable
define void @_ZN3tsi18SslSessionLRUCache6RemoveEPNS0_4NodeE(ptr noundef nonnull align 8 captures(none) dereferenceable(104) %0, ptr noundef readonly captures(none) %1) local_unnamed_addr #0 align 2 personality ptr @__gxx_personality_v0 {
  %3 = alloca %"class.absl::lts_20240722::log_internal::LogMessageFatal", align 8
  %4 = getelementptr inbounds nuw i8, ptr %1, i64 48
  %5 = load ptr, ptr %4, align 8, !tbaa !57
  %6 = icmp eq ptr %5, null
  %7 = getelementptr inbounds nuw i8, ptr %1, i64 40
  %8 = load ptr, ptr %7, align 8, !tbaa !34
  br i1 %6, label %9, label %11

9:                                                ; preds = %2
  %10 = getelementptr inbounds nuw i8, ptr %0, i64 32
  store ptr %8, ptr %10, align 8, !tbaa !33
  br label %13

11:                                               ; preds = %2
  %12 = getelementptr inbounds nuw i8, ptr %5, i64 40
  store ptr %8, ptr %12, align 8, !tbaa !34
  br label %13

13:                                               ; preds = %11, %9
  %14 = icmp eq ptr %8, null
  br i1 %14, label %15, label %17

15:                                               ; preds = %13
  %16 = getelementptr inbounds nuw i8, ptr %0, i64 40
  store ptr %5, ptr %16, align 8, !tbaa !58
  br label %19

17:                                               ; preds = %13
  %18 = getelementptr inbounds nuw i8, ptr %8, i64 48
  store ptr %5, ptr %18, align 8, !tbaa !57
  br label %19

19:                                               ; preds = %15, %17
  %20 = getelementptr inbounds nuw i8, ptr %0, i64 48
  %21 = load i64, ptr %20, align 8, !tbaa !52
  %.not.i = icmp eq i64 %21, 0
  br i1 %.not.i, label %24, label %22, !prof !59

22:                                               ; preds = %19
  %23 = add i64 %21, -1
  store i64 %23, ptr %20, align 8, !tbaa !52
  ret void

24:                                               ; preds = %19
  %25 = tail call noundef nonnull ptr @_ZN4absl12lts_2024072212log_internal17MakeCheckOpStringImlEEPNSt7__cxx1112basic_stringIcSt11char_traitsIcESaIcEEET_T0_PKc(i64 noundef 0, i64 noundef 1, ptr noundef nonnull @.str.4)
  call void @llvm.lifetime.start.p0(i64 16, ptr nonnull %3) #22
  %26 = load ptr, ptr %25, align 8, !tbaa !47
  %27 = getelementptr inbounds nuw i8, ptr %25, i64 8
  %28 = load i64, ptr %27, align 8, !tbaa !48
  call void @_ZN4absl12lts_2024072212log_internal15LogMessageFatalC1EPKciSt17basic_string_viewIcSt11char_traitsIcEE(ptr noundef nonnull align 8 dereferenceable(16) %3, ptr noundef nonnull @.str, i32 noundef 146, i64 %28, ptr %26) #23
  call void @_ZN4absl12lts_2024072212log_internal15LogMessageFatalD1Ev(ptr noundef nonnull align 8 dereferenceable(16) %3) #25
  unreachable
}